Certificate:
    Data:
        Version: 3 (0x2)
        Serial Number: 1 (0x1)
        Signature Algorithm: sha256WithRSAEncryption
        Issuer: C=CN, ST=China, L=BeiJing, O=Developer, OU=Luna, CN=LUNA-CUSTOM-CA/emailAddress=luna@cyl-mail.com
        Validity
            Not Before: Apr 30 05:38:39 2020 GMT
            Not After : Apr 30 05:38:39 2021 GMT
        Subject: C=CN, ST=Some-State, O=Developer, OU=Luna, CN=local.luna.xin/emailAddress=luna@cyl-mail.com
        Subject Public Key Info:
            Public Key Algorithm: rsaEncryption
                RSA Public-Key: (2048 bit)
                Modulus:
                    00:be:98:7b:ad:cd:13:75:bc:42:8f:06:e5:2f:ca:
                    18:ae:e1:06:4e:86:9e:01:2d:db:98:15:04:07:07:
                    c7:83:75:4b:0a:4d:66:d1:c8:9c:e6:3e:60:87:09:
                    39:b5:d8:95:09:8d:f6:28:09:26:17:bc:5c:22:99:
                    69:e3:d2:1a:9c:93:7d:fe:43:71:8f:0d:69:c9:56:
                    7f:6b:b0:b8:5b:8c:4e:54:f1:d6:6e:fe:3f:b6:49:
                    d6:8e:a0:f1:25:3d:2f:13:a7:b1:e5:83:8d:3f:98:
                    24:23:a4:7a:cf:ac:8b:0b:ff:6a:65:62:cc:24:65:
                    3c:14:2b:8f:d6:3a:4a:5a:05:f0:4e:dc:86:b2:f7:
                    27:8c:fc:e7:1b:b9:e5:37:14:46:56:34:09:37:8e:
                    6e:b9:d8:e1:88:b2:9a:11:64:f5:77:5d:3a:cf:26:
                    7c:bd:bc:9b:d7:2b:fa:87:d2:a3:aa:cf:90:df:bb:
                    d7:7e:b3:d4:15:73:f3:9c:62:7a:dd:54:d9:fd:c2:
                    dc:26:d4:d0:f8:11:e3:9a:69:61:f8:4d:27:56:36:
                    b5:6b:d1:66:6a:dd:2a:c0:04:b3:20:fe:3b:22:81:
                    56:2d:a9:68:3f:c3:a1:cd:87:35:9e:29:18:e4:44:
                    74:a4:c0:02:ec:ae:bf:b6:0a:ca:5d:4f:7e:a4:e8:
                    38:d3
                Exponent: 65537 (0x10001)
        X509v3 extensions:
            X509v3 Basic Constraints: 
                CA:FALSE
            Netscape Comment: 
                OpenSSL Generated Certificate
            X509v3 Subject Key Identifier: 
                1F:41:4B:E5:60:49:68:B0:B1:12:5A:F4:A4:19:88:26:2F:71:5B:9F
            X509v3 Authority Key Identifier: 
                keyid:00:91:1B:52:6A:B2:72:36:AC:4B:6B:40:77:D2:B5:D0:D1:C3:5B:C2

    Signature Algorithm: sha256WithRSAEncryption
         6e:25:d3:f2:b2:b7:13:2f:ca:ca:0a:3a:9e:5b:b7:cd:61:32:
         1e:ec:04:51:7d:51:de:18:ad:84:e5:88:01:3c:2e:18:d2:00:
         d1:b4:5d:3e:52:4a:24:fb:97:85:b7:cb:8c:10:47:21:31:d3:
         86:cc:39:1b:c4:13:48:ed:34:2c:17:92:b3:6a:31:20:9d:fb:
         d2:c1:35:27:da:52:9e:99:13:24:ac:92:74:10:8c:4a:a4:5c:
         11:87:f9:d1:75:2c:de:33:ad:d0:ce:e7:d3:2e:52:aa:5d:00:
         00:ef:1d:4c:a0:5c:74:bb:e3:28:78:96:ea:77:ad:70:5d:df:
         74:d5:c9:5c:41:7e:f4:1a:df:02:9a:e2:4d:e9:f3:aa:f3:74:
         d5:71:a2:2b:e2:68:e3:ba:21:88:88:1b:14:d8:9c:5f:4e:53:
         36:d4:20:4b:cc:59:54:47:3d:7a:a9:47:dd:48:3d:5b:ef:41:
         4a:35:75:df:b6:0d:93:61:f0:1b:da:ee:19:32:32:59:46:42:
         9b:57:b7:7e:cb:33:ee:e9:d1:cb:fd:31:86:b3:b5:41:89:3f:
         04:a6:7b:16:e5:a3:4c:7f:0d:dd:a9:cd:ad:95:3c:fa:2a:ca:
         b7:95:59:b9:83:8c:e9:ff:a7:ba:84:02:83:e3:04:30:9d:65:
         71:1e:21:8b
-----BEGIN CERTIFICATE-----
MIIEBTCCAu2gAwIBAgIBATANBgkqhkiG9w0BAQsFADCBjTELMAkGA1UEBhMCQ04x
DjAMBgNVBAgMBUNoaW5hMRAwDgYDVQQHDAdCZWlKaW5nMRIwEAYDVQQKDAlEZXZl
bG9wZXIxDTALBgNVBAsMBEx1bmExFzAVBgNVBAMMDkxVTkEtQ1VTVE9NLUNBMSAw
HgYJKoZIhvcNAQkBFhFsdW5hQGN5bC1tYWlsLmNvbTAeFw0yMDA0MzAwNTM4Mzla
Fw0yMTA0MzAwNTM4MzlaMIGAMQswCQYDVQQGEwJDTjETMBEGA1UECAwKU29tZS1T
dGF0ZTESMBAGA1UECgwJRGV2ZWxvcGVyMQ0wCwYDVQQLDARMdW5hMRcwFQYDVQQD
DA5sb2NhbC5sdW5hLnhpbjEgMB4GCSqGSIb3DQEJARYRbHVuYUBjeWwtbWFpbC5j
b20wggEiMA0GCSqGSIb3DQEBAQUAA4IBDwAwggEKAoIBAQC+mHutzRN1vEKPBuUv
yhiu4QZOhp4BLduYFQQHB8eDdUsKTWbRyJzmPmCHCTm12JUJjfYoCSYXvFwimWnj
0hqck33+Q3GPDWnJVn9rsLhbjE5U8dZu/j+2SdaOoPElPS8Tp7Hlg40/mCQjpHrP
rIsL/2plYswkZTwUK4/WOkpaBfBO3Iay9yeM/OcbueU3FEZWNAk3jm652OGIspoR
ZPV3XTrPJny9vJvXK/qH0qOqz5Dfu9d+s9QVc/OcYnrdVNn9wtwm1ND4EeOaaWH4
TSdWNrVr0WZq3SrABLMg/jsigVYtqWg/w6HNhzWeKRjkRHSkwALsrr+2CspdT36k
6DjTAgMBAAGjezB5MAkGA1UdEwQCMAAwLAYJYIZIAYb4QgENBB8WHU9wZW5TU0wg
R2VuZXJhdGVkIENlcnRpZmljYXRlMB0GA1UdDgQWBBQfQUvlYElosLESWvSkGYgm
L3FbnzAfBgNVHSMEGDAWgBQAkRtSarJyNqxLa0B30rXQ0cNbwjANBgkqhkiG9w0B
AQsFAAOCAQEAbiXT8rK3Ey/Kygo6nlu3zWEyHuwEUX1R3hithOWIATwuGNIA0bRd
PlJKJPuXhbfLjBBHITHThsw5G8QTSO00LBeSs2oxIJ370sE1J9pSnpkTJKySdBCM
SqRcEYf50XUs3jOt0M7n0y5Sql0AAO8dTKBcdLvjKHiW6netcF3fdNXJXEF+9Brf
ApriTenzqvN01XGiK+Jo47ohiIgbFNicX05TNtQgS8xZVEc9eqlH3Ug9W+9BSjV1
37YNk2HwG9ruGTIyWUZCm1e3fssz7unRy/0xhrO1QYk/BKZ7FuWjTH8N3anNrZU8
+irKt5VZuYOM6f+nuoQCg+MEMJ1lcR4hiw==
-----END CERTIFICATE-----
